; Function Attrs: mustprogress uwtable
define void @_ZNK3gmx17HelpWriterContext4Impl12replaceLinksERKNSt7__cxx1112basic_stringIcSt11char_traitsIcESaIcEEE(ptr dead_on_unwind noalias nonnull writable sret(%"class.std::__cxx11::basic_string") align 8 %0, ptr nocapture noundef nonnull readonly align 8 dereferenceable(44) %1, ptr noundef nonnull align 8 dereferenceable(32) %2) local_unnamed_addr #0 align 2 personality ptr @__gxx_personality_v0 {
  %4 = alloca %"class.std::__cxx11::basic_string", align 8
  tail call void @_ZNSt7__cxx1112basic_stringIcSt11char_traitsIcESaIcEEC1ERKS4_(ptr noundef nonnull align 8 dereferenceable(32) %0, ptr noundef nonnull align 8 dereferenceable(32) %2)
  %5 = load ptr, ptr %1, align 8
  %6 = getelementptr inbounds i8, ptr %5, i64 16
  %7 = load ptr, ptr %6, align 8
  %.not = icmp eq ptr %7, null
  br i1 %.not, label %.loopexit, label %8

8:                                                ; preds = %3
  %9 = load ptr, ptr %7, align 8
  %10 = load ptr, ptr %9, align 8
  %11 = getelementptr inbounds i8, ptr %9, i64 8
  %12 = load ptr, ptr %11, align 8
  %.not1112 = icmp eq ptr %10, %12
  br i1 %.not1112, label %.loopexit, label %.lr.ph

.lr.ph:                                           ; preds = %8, %14
  %.sroa.08.013 = phi ptr [ %16, %14 ], [ %10, %8 ]
  %13 = getelementptr inbounds i8, ptr %.sroa.08.013, i64 32
  invoke void @_ZN3gmx15replaceAllWordsERKNSt7__cxx1112basic_stringIcSt11char_traitsIcESaIcEEES7_S7_(ptr dead_on_unwind nonnull writable sret(%"class.std::__cxx11::basic_string") align 8 %4, ptr noundef nonnull align 8 dereferenceable(32) %0, ptr noundef nonnull align 8 dereferenceable(32) %.sroa.08.013, ptr noundef nonnull align 8 dereferenceable(32) %13)
          to label %14 unwind label %17

14:                                               ; preds = %.lr.ph
  %15 = call noundef nonnull align 8 dereferenceable(32) ptr @_ZNSt7__cxx1112basic_stringIcSt11char_traitsIcESaIcEEaSEOS4_(ptr noundef nonnull align 8 dereferenceable(32) %0, ptr noundef nonnull align 8 dereferenceable(32) %4) #17
  call void @_ZNSt7__cxx1112basic_stringIcSt11char_traitsIcESaIcEED1Ev(ptr noundef nonnull align 8 dereferenceable(32) %4) #17
  %16 = getelementptr inbounds i8, ptr %.sroa.08.013, i64 64
  %.not11 = icmp eq ptr %16, %12
  br i1 %.not11, label %.loopexit, label %.lr.ph

17:                                               ; preds = %.lr.ph
  %18 = landingpad { ptr, i32 }
          cleanup
  call void @_ZNSt7__cxx1112basic_stringIcSt11char_traitsIcESaIcEED1Ev(ptr noundef nonnull align 8 dereferenceable(32) %0) #17
  resume { ptr, i32 } %18

.loopexit:                                        ; preds = %14, %8, %3
  ret void
}